; ModuleID = '54/1189.c'
source_filename = "54/1189.c"
target datalayout = "e-m:e-p270:32:32-p271:32:32-p272:64:64-i64:64-f80:128-n8:16:32:64-S128"
target triple = "x86_64-pc-linux-gnu"

@.str = private unnamed_addr constant [5 x i8] c"%d%d\00", align 1
@.str.1 = private unnamed_addr constant [3 x i8] c"%d\00", align 1

; Function Attrs: noinline nounwind uwtable
define dso_local i32 @main() #0 {
  %1 = alloca i32, align 4
  %2 = alloca i32, align 4
  %3 = alloca i32, align 4
  %4 = alloca i32, align 4
  %5 = alloca i32, align 4
  %6 = alloca i32, align 4
  %7 = alloca i32, align 4
  store i32 0, i32* %1, align 4
  %8 = call i32 (i8*, ...) @__isoc99_scanf(i8* getelementptr inbounds ([5 x i8], [5 x i8]* @.str, i64 0, i64 0), i32* %2, i32* %3)
  %9 = load i32, i32* %2, align 4
  %10 = sitofp i32 %9 to double
  %11 = load i32, i32* %2, align 4
  %12 = sitofp i32 %11 to double
  %13 = call double @pow(double %10, double %12) #3
  %14 = fptosi double %13 to i32
  store i32 %14, i32* %5, align 4
  %15 = load i32, i32* %2, align 4
  %16 = sub nsw i32 %15, 1
  %17 = sitofp i32 %16 to double
  %18 = load i32, i32* %2, align 4
  %19 = sub nsw i32 %18, 1
  %20 = sitofp i32 %19 to double
  %21 = call double @pow(double %17, double %20) #3
  %22 = fptosi double %21 to i32
  store i32 %22, i32* %6, align 4
  %23 = load i32, i32* %3, align 4
  %24 = sitofp i32 %23 to double
  %25 = fmul double %24, 1.000000e+00
  %26 = load i32, i32* %6, align 4
  %27 = sitofp i32 %26 to double
  %28 = fdiv double %25, %27
  %29 = fptosi double %28 to i32
  store i32 %29, i32* %7, align 4
  %30 = load i32, i32* %7, align 4
  %31 = add nsw i32 %30, 1
  store i32 %31, i32* %7, align 4
  %32 = load i32, i32* %7, align 4
  %33 = load i32, i32* %5, align 4
  %34 = mul nsw i32 %32, %33
  %35 = load i32, i32* %2, align 4
  %36 = sub nsw i32 %35, 1
  %37 = load i32, i32* %3, align 4
  %38 = mul nsw i32 %36, %37
  %39 = sub nsw i32 %34, %38
  store i32 %39, i32* %4, align 4
  %40 = load i32, i32* %4, align 4
  %41 = call i32 (i8*, ...) @printf(i8* getelementptr inbounds ([3 x i8], [3 x i8]* @.str.1, i64 0, i64 0), i32 %40)
  ret i32 0
}

declare dso_local i32 @__isoc99_scanf(i8*, ...) #1

; Function Attrs: nounwind
declare dso_local double @pow(double, double) #2

declare dso_local i32 @printf(i8*, ...) #1


!llvm.module.flags = !{!0}
!llvm.ident = !{!1}

!0 = !{i32 1, !"wchar_size", i32 4}
!1 = !{!"clang version 10.0.0-4ubuntu1 "}
